; Function Attrs: mustprogress uwtable
define void @_ZN4LIEF5MachO4Hash5visitERKNS0_13SourceVersionE(ptr noundef nonnull align 8 dereferenceable(64) %0, ptr noundef nonnull align 8 dereferenceable(76) %1) unnamed_addr #3 align 2 {
  %3 = load ptr, ptr %0, align 8
  %4 = getelementptr inbounds i8, ptr %3, i64 872
  %5 = load ptr, ptr %4, align 8
  tail call void %5(ptr noundef nonnull align 8 dereferenceable(64) %0, ptr noundef nonnull align 8 dereferenceable(56) %1)
  %6 = tail call noundef nonnull align 4 dereferenceable(20) ptr @_ZNK4LIEF5MachO13SourceVersion7versionEv(ptr noundef nonnull align 8 dereferenceable(76) %1)
  br label %.lr.ph.i.i

.lr.ph.i.i:                                       ; preds = %.lr.ph.i.i, %2
  %.08.i.idx.i = phi i64 [ %.08.i.add.i, %.lr.ph.i.i ], [ 0, %2 ]
  %.08.i.ptr.i = getelementptr inbounds i8, ptr %6, i64 %.08.i.idx.i
  %7 = load i32, ptr %.08.i.ptr.i, align 4
  %8 = zext i32 %7 to i64
  %9 = load ptr, ptr %0, align 8
  %10 = getelementptr inbounds i8, ptr %9, i64 1328
  %11 = load ptr, ptr %10, align 8
  %12 = tail call noundef nonnull align 8 dereferenceable(64) ptr %11(ptr noundef nonnull align 8 dereferenceable(64) %0, i64 noundef %8)
  %.08.i.add.i = add nuw nsw i64 %.08.i.idx.i, 4
  %.not.i.i = icmp eq i64 %.08.i.add.i, 20
  br i1 %.not.i.i, label %_ZN4LIEF4Hash7processIjLm5EEERS0_RKSt5arrayIT_XT0_EE.exit, label %.lr.ph.i.i, !llvm.loop !63

_ZN4LIEF4Hash7processIjLm5EEERS0_RKSt5arrayIT_XT0_EE.exit: ; preds = %.lr.ph.i.i
  ret void
}